; ModuleID = 'source-C-CXX/39/1716.c'
source_filename = "source-C-CXX/39/1716.c"
target datalayout = "e-m:e-p270:32:32-p271:32:32-p272:64:64-i64:64-f80:128-n8:16:32:64-S128"
target triple = "x86_64-pc-linux-gnu"

@.str = private unnamed_addr constant [3 x i8] c"%f\00", align 1
@.str.1 = private unnamed_addr constant [4 x i8] c"%lf\00", align 1
@.str.3 = private unnamed_addr constant [7 x i8] c"%.4lf\0A\00", align 1
@str = private unnamed_addr constant [14 x i8] c"Invalid input\00", align 1

; Function Attrs: nofree nounwind sspstrong uwtable
define dso_local i32 @main() local_unnamed_addr #0 {
  %1 = alloca float, align 4
  %2 = alloca float, align 4
  %3 = alloca float, align 4
  %4 = alloca float, align 4
  %5 = alloca double, align 8
  %6 = bitcast float* %1 to i8*
  call void @llvm.lifetime.start.p0i8(i64 4, i8* nonnull %6) #5
  %7 = bitcast float* %2 to i8*
  call void @llvm.lifetime.start.p0i8(i64 4, i8* nonnull %7) #5
  %8 = bitcast float* %3 to i8*
  call void @llvm.lifetime.start.p0i8(i64 4, i8* nonnull %8) #5
  %9 = bitcast float* %4 to i8*
  call void @llvm.lifetime.start.p0i8(i64 4, i8* nonnull %9) #5
  %10 = bitcast double* %5 to i8*
  call void @llvm.lifetime.start.p0i8(i64 8, i8* nonnull %10) #5
  %11 = call i32 (i8*, ...) @__isoc99_scanf(i8* getelementptr inbounds ([3 x i8], [3 x i8]* @.str, i64 0, i64 0), float* nonnull %1)
  %12 = call i32 (i8*, ...) @__isoc99_scanf(i8* getelementptr inbounds ([3 x i8], [3 x i8]* @.str, i64 0, i64 0), float* nonnull %2)
  %13 = call i32 (i8*, ...) @__isoc99_scanf(i8* getelementptr inbounds ([3 x i8], [3 x i8]* @.str, i64 0, i64 0), float* nonnull %3)
  %14 = call i32 (i8*, ...) @__isoc99_scanf(i8* getelementptr inbounds ([3 x i8], [3 x i8]* @.str, i64 0, i64 0), float* nonnull %4)
  %15 = call i32 (i8*, ...) @__isoc99_scanf(i8* getelementptr inbounds ([4 x i8], [4 x i8]* @.str.1, i64 0, i64 0), double* nonnull %5)
  %16 = load float, float* %1, align 4, !tbaa !5
  %17 = load float, float* %2, align 4, !tbaa !5
  %18 = fadd float %16, %17
  %19 = load float, float* %3, align 4, !tbaa !5
  %20 = fadd float %18, %19
  %21 = load float, float* %4, align 4, !tbaa !5
  %22 = fadd float %20, %21
  %23 = fmul float %22, 5.000000e-01
  %24 = load double, double* %5, align 8, !tbaa !9
  %25 = fmul double %24, 5.000000e-01
  %26 = fdiv double %25, 3.600000e+02
  %27 = fmul double %26, 2.000000e+00
  %28 = fmul double %27, 0x400921FB4D12D84A
  %29 = fsub float %23, %16
  %30 = fsub float %23, %17
  %31 = fmul float %29, %30
  %32 = fsub float %23, %19
  %33 = fmul float %32, %31
  %34 = fsub float %23, %21
  %35 = fmul float %34, %33
  %36 = fpext float %35 to double
  %37 = fmul float %16, %17
  %38 = fmul float %37, %19
  %39 = fmul float %38, %21
  %40 = fpext float %39 to double
  %41 = call double @cos(double %28) #5
  %42 = fmul double %41, %40
  %43 = call double @cos(double %28) #5
  %44 = fmul double %42, %43
  %45 = fsub double %36, %44
  %46 = fcmp olt double %45, 0.000000e+00
  br i1 %46, label %47, label %49

47:                                               ; preds = %0
  %48 = call i32 @puts(i8* nonnull dereferenceable(1) getelementptr inbounds ([14 x i8], [14 x i8]* @str, i64 0, i64 0))
  br label %73

49:                                               ; preds = %0
  %50 = load float, float* %1, align 4, !tbaa !5
  %51 = fsub float %23, %50
  %52 = load float, float* %2, align 4, !tbaa !5
  %53 = fsub float %23, %52
  %54 = fmul float %51, %53
  %55 = load float, float* %3, align 4, !tbaa !5
  %56 = fsub float %23, %55
  %57 = fmul float %54, %56
  %58 = load float, float* %4, align 4, !tbaa !5
  %59 = fsub float %23, %58
  %60 = fmul float %57, %59
  %61 = fpext float %60 to double
  %62 = fmul float %50, %52
  %63 = fmul float %62, %55
  %64 = fmul float %63, %58
  %65 = fpext float %64 to double
  %66 = call double @cos(double %28) #5
  %67 = fmul double %66, %65
  %68 = call double @cos(double %28) #5
  %69 = fmul double %68, %67
  %70 = fsub double %61, %69
  %71 = call double @sqrt(double %70) #5
  %72 = call i32 (i8*, ...) @printf(i8* nonnull dereferenceable(1) getelementptr inbounds ([7 x i8], [7 x i8]* @.str.3, i64 0, i64 0), double %71)
  br label %73

73:                                               ; preds = %49, %47
  call void @llvm.lifetime.end.p0i8(i64 8, i8* nonnull %10) #5
  call void @llvm.lifetime.end.p0i8(i64 4, i8* nonnull %9) #5
  call void @llvm.lifetime.end.p0i8(i64 4, i8* nonnull %8) #5
  call void @llvm.lifetime.end.p0i8(i64 4, i8* nonnull %7) #5
  call void @llvm.lifetime.end.p0i8(i64 4, i8* nonnull %6) #5
  ret i32 0
}

; Function Attrs: argmemonly mustprogress nofree nosync nounwind willreturn
declare void @llvm.lifetime.start.p0i8(i64 immarg, i8* nocapture) #1

; Function Attrs: nofree nounwind
declare noundef i32 @__isoc99_scanf(i8* nocapture noundef readonly, ...) local_unnamed_addr #2

; Function Attrs: mustprogress nofree nounwind willreturn
declare double @cos(double) local_unnamed_addr #3

; Function Attrs: nofree nounwind
declare noundef i32 @printf(i8* nocapture noundef readonly, ...) local_unnamed_addr #2

; Function Attrs: mustprogress nofree nounwind willreturn
declare double @sqrt(double) local_unnamed_addr #3

; Function Attrs: argmemonly mustprogress nofree nosync nounwind willreturn
declare void @llvm.lifetime.end.p0i8(i64 immarg, i8* nocapture) #1

; Function Attrs: nofree nounwind
declare noundef i32 @puts(i8* nocapture noundef readonly) local_unnamed_addr #4


!llvm.module.flags = !{!0, !1, !2, !3}
!llvm.ident = !{!4}

!0 = !{i32 1, !"wchar_size", i32 4}
!1 = !{i32 7, !"PIC Level", i32 2}
!2 = !{i32 7, !"PIE Level", i32 2}
!3 = !{i32 7, !"uwtable", i32 1}
!4 = !{!"clang version 13.0.0"}
!5 = !{!6, !6, i64 0}
!6 = !{!"float", !7, i64 0}
!7 = !{!"omnipotent char", !8, i64 0}
!8 = !{!"Simple C/C++ TBAA"}
!9 = !{!10, !10, i64 0}
!10 = !{!"double", !7, i64 0}
